target datalayout = "e-m:e-p270:32:32-p271:32:32-p272:64:64-i64:64-i128:128-f80:128-n8:16:32:64-S128"
target triple = "x86_64-pc-linux-gnu"

%struct.expert_field = type { i32, i32 }
%struct.dissect_info_t = type { ptr, ptr, i32 }
%struct._packet_info = type { ptr, ptr, i32, i32, %struct.nstime_t, %struct.nstime_t, %struct.nstime_t, i8, ptr, ptr, ptr, ptr, %struct._address, %struct._address, %struct._address, %struct._address, %struct._address, %struct._address, i32, ptr, i8, [3 x i8], %struct.anon, i32, i32, i32, i32, ptr, i8, ptr, ptr, i16, i16, i32, i32, i16, i32, i32, ptr, ptr, ptr, i8, i8, i16, i16, i16, i32, i16, i16, ptr, ptr, ptr, ptr, ptr, i32, i32 }
%struct.nstime_t = type { i64, i32 }
%struct._address = type { i32, i32, ptr, ptr }
%struct.anon = type { i8, [3 x i8] }

@hf_logcat_text_log = internal global i32 0, align 4
@ei_malformed_token = internal global %struct.expert_field zeroinitializer, align 4
@ett_logcat = internal global i32 0, align 4
@dissector_name = internal constant [12 x i8] c"Logcat Text\00", align 1
@proto_logcat_text = internal global i32 0, align 4
@special_regex = internal global ptr null, align 8

; Function Attrs: null_pointer_is_valid sspstrong uwtable
define internal i32 @get_log(ptr noundef %0, ptr noundef %1, ptr noundef %2, ptr noundef %3, i32 noundef %4, ptr noundef %5) #0 {
  %7 = alloca ptr, align 8
  %8 = alloca ptr, align 8
  %9 = alloca ptr, align 8
  %10 = alloca ptr, align 8
  %11 = alloca i32, align 4
  %12 = alloca ptr, align 8
  %13 = alloca ptr, align 8
  %14 = alloca i32, align 4
  store ptr %0, ptr %7, align 8
  store ptr %1, ptr %8, align 8
  store ptr %2, ptr %9, align 8
  store ptr %3, ptr %10, align 8
  store i32 %4, ptr %11, align 4
  store ptr %5, ptr %12, align 8
  call void @llvm.lifetime.start.p0(i64 8, ptr %13) #7
  %15 = load ptr, ptr %7, align 8
  %16 = load i32, ptr %11, align 4
  %17 = sext i32 %16 to i64
  %18 = getelementptr i8, ptr %15, i64 %17
  %19 = load ptr, ptr %8, align 8
  %20 = call ptr @g_strstr_len(ptr noundef %18, i64 noundef -1, ptr noundef %19)
  store ptr %20, ptr %13, align 8
  call void @llvm.lifetime.start.p0(i64 4, ptr %14) #7
  %21 = load ptr, ptr %13, align 8
  %22 = load ptr, ptr %7, align 8
  %23 = ptrtoint ptr %21 to i64
  %24 = ptrtoint ptr %22 to i64
  %25 = sub i64 %23, %24
  %26 = trunc i64 %25 to i32
  store i32 %26, ptr %14, align 4
  %27 = load ptr, ptr %10, align 8
  %28 = load i32, ptr @hf_logcat_text_log, align 4
  %29 = load ptr, ptr %9, align 8
  %30 = load i32, ptr %14, align 4
  %31 = load ptr, ptr %8, align 8
  %32 = call i64 @strlen(ptr noundef %31) #8
  %33 = trunc i64 %32 to i32
  %34 = load ptr, ptr %8, align 8
  %35 = call ptr @proto_tree_add_string(ptr noundef %27, i32 noundef %28, ptr noundef %29, i32 noundef %30, i32 noundef %33, ptr noundef %34)
  %36 = load ptr, ptr %12, align 8
  %37 = getelementptr inbounds nuw %struct._packet_info, ptr %36, i32 0, i32 1
  %38 = load ptr, ptr %37, align 8
  %39 = load ptr, ptr %8, align 8
  call void @col_add_str(ptr noundef %38, i32 noundef 25, ptr noundef %39)
  %40 = load i32, ptr %14, align 4
  %41 = load ptr, ptr %8, align 8
  %42 = call i64 @strlen(ptr noundef %41) #8
  %43 = trunc i64 %42 to i32
  %44 = add i32 %40, %43
  call void @llvm.lifetime.end.p0(i64 4, ptr %14) #7
  call void @llvm.lifetime.end.p0(i64 8, ptr %13) #7
  ret i32 %44
}

; Function Attrs: null_pointer_is_valid sspstrong uwtable
define internal i32 @dissect_logcat_text(ptr noundef %0, ptr noundef %1, ptr noundef %2, ptr noundef %3) #0 {
  %5 = alloca i32, align 4
  %6 = alloca ptr, align 8
  %7 = alloca ptr, align 8
  %8 = alloca ptr, align 8
  %9 = alloca ptr, align 8
  %10 = alloca ptr, align 8
  %11 = alloca i32, align 4
  %12 = alloca ptr, align 8
  %13 = alloca ptr, align 8
  %14 = alloca ptr, align 8
  %15 = alloca i32, align 4
  %16 = alloca i32, align 4
  store ptr %0, ptr %6, align 8
  store ptr %1, ptr %7, align 8
  store ptr %2, ptr %8, align 8
  store ptr %3, ptr %9, align 8
  call void @llvm.lifetime.start.p0(i64 8, ptr %10) #7
  call void @llvm.lifetime.start.p0(i64 4, ptr %11) #7
  call void @llvm.lifetime.start.p0(i64 8, ptr %12) #7
  %17 = load ptr, ptr %8, align 8
  %18 = getelementptr inbounds nuw %struct._packet_info, ptr %17, i32 0, i32 51
  %19 = load ptr, ptr %18, align 8
  %20 = load ptr, ptr %6, align 8
  %21 = load ptr, ptr %6, align 8
  %22 = call i32 @tvb_captured_length(ptr noundef %21)
  %23 = call ptr @tvb_get_string_enc(ptr noundef %19, ptr noundef %20, i32 noundef 0, i32 noundef %22, i32 noundef 2)
  store ptr %23, ptr %12, align 8
  call void @llvm.lifetime.start.p0(i64 8, ptr %13) #7
  %24 = load ptr, ptr %7, align 8
  %25 = load i32, ptr @proto_logcat_text, align 4
  %26 = load ptr, ptr %6, align 8
  %27 = call ptr @proto_tree_add_item(ptr noundef %24, i32 noundef %25, ptr noundef %26, i32 noundef 0, i32 noundef -1, i32 noundef 0)
  store ptr %27, ptr %13, align 8
  call void @llvm.lifetime.start.p0(i64 8, ptr %14) #7
  %28 = load ptr, ptr %13, align 8
  %29 = load i32, ptr @ett_logcat, align 4
  %30 = call ptr @proto_item_add_subtree(ptr noundef %28, i32 noundef %29)
  store ptr %30, ptr %14, align 8
  call void @llvm.lifetime.start.p0(i64 4, ptr %15) #7
  store i32 0, ptr %15, align 4
  %31 = load ptr, ptr %8, align 8
  %32 = getelementptr inbounds nuw %struct._packet_info, ptr %31, i32 0, i32 1
  %33 = load ptr, ptr %32, align 8
  call void @col_set_str(ptr noundef %33, i32 noundef 35, ptr noundef @dissector_name)
  %34 = load ptr, ptr @special_regex, align 8
  %35 = load ptr, ptr %12, align 8
  %36 = call i32 @g_regex_match(ptr noundef %34, ptr noundef %35, i32 noundef 1024, ptr noundef null)
  %37 = icmp ne i32 %36, 0
  br i1 %37, label %94, label %38

38:                                               ; preds = %4
  %39 = load ptr, ptr %9, align 8
  %40 = getelementptr inbounds nuw %struct.dissect_info_t, ptr %39, i32 0, i32 0
  %41 = load ptr, ptr %40, align 8
  %42 = load ptr, ptr %41, align 8
  %43 = load ptr, ptr %12, align 8
  %44 = call ptr @g_regex_split(ptr noundef %42, ptr noundef %43, i32 noundef 1024)
  store ptr %44, ptr %10, align 8
  %45 = load ptr, ptr %10, align 8
  %46 = icmp eq ptr null, %45
  br i1 %46, label %47, label %48

47:                                               ; preds = %38
  store i32 0, ptr %5, align 4
  store i32 1, ptr %16, align 4
  br label %113

48:                                               ; preds = %38
  %49 = load ptr, ptr %10, align 8
  %50 = call i32 @g_strv_length(ptr noundef %49)
  %51 = load ptr, ptr %9, align 8
  %52 = getelementptr inbounds nuw %struct.dissect_info_t, ptr %51, i32 0, i32 2
  %53 = load i32, ptr %52, align 8
  %54 = add i32 %53, 2
  %55 = icmp ne i32 %50, %54
  br i1 %55, label %56, label %63

56:                                               ; preds = %48
  %57 = load ptr, ptr %14, align 8
  %58 = load ptr, ptr %8, align 8
  %59 = load ptr, ptr %6, align 8
  %60 = load i32, ptr %15, align 4
  %61 = call ptr @proto_tree_add_expert(ptr noundef %57, ptr noundef %58, ptr noundef @ei_malformed_token, ptr noundef %59, i32 noundef %60, i32 noundef -1)
  %62 = load ptr, ptr %10, align 8
  call void @g_strfreev(ptr noundef %62)
  store i32 0, ptr %5, align 4
  store i32 1, ptr %16, align 4
  br label %113

63:                                               ; preds = %48
  store i32 0, ptr %11, align 4
  br label %64

64:                                               ; preds = %90, %63
  %65 = load i32, ptr %11, align 4
  %66 = load ptr, ptr %9, align 8
  %67 = getelementptr inbounds nuw %struct.dissect_info_t, ptr %66, i32 0, i32 2
  %68 = load i32, ptr %67, align 8
  %69 = icmp ult i32 %65, %68
  br i1 %69, label %70, label %93

70:                                               ; preds = %64
  %71 = load ptr, ptr %9, align 8
  %72 = getelementptr inbounds nuw %struct.dissect_info_t, ptr %71, i32 0, i32 1
  %73 = load ptr, ptr %72, align 8
  %74 = load i32, ptr %11, align 4
  %75 = zext i32 %74 to i64
  %76 = getelementptr ptr, ptr %73, i64 %75
  %77 = load ptr, ptr %76, align 8
  %78 = load ptr, ptr %12, align 8
  %79 = load ptr, ptr %10, align 8
  %80 = load i32, ptr %11, align 4
  %81 = add i32 %80, 1
  %82 = zext i32 %81 to i64
  %83 = getelementptr ptr, ptr %79, i64 %82
  %84 = load ptr, ptr %83, align 8
  %85 = load ptr, ptr %6, align 8
  %86 = load ptr, ptr %14, align 8
  %87 = load i32, ptr %15, align 4
  %88 = load ptr, ptr %8, align 8
  %89 = call i32 %77(ptr noundef %78, ptr noundef %84, ptr noundef %85, ptr noundef %86, i32 noundef %87, ptr noundef %88)
  store i32 %89, ptr %15, align 4
  br label %90

90:                                               ; preds = %70
  %91 = load i32, ptr %11, align 4
  %92 = add i32 %91, 1
  store i32 %92, ptr %11, align 4
  br label %64, !llvm.loop !6

93:                                               ; preds = %64
  br label %110

94:                                               ; preds = %4
  %95 = load ptr, ptr @special_regex, align 8
  %96 = load ptr, ptr %12, align 8
  %97 = call ptr @g_regex_split(ptr noundef %95, ptr noundef %96, i32 noundef 1024)
  store ptr %97, ptr %10, align 8
  %98 = load ptr, ptr %10, align 8
  %99 = icmp eq ptr null, %98
  br i1 %99, label %100, label %101

100:                                              ; preds = %94
  store i32 0, ptr %5, align 4
  store i32 1, ptr %16, align 4
  br label %113

101:                                              ; preds = %94
  %102 = load ptr, ptr %12, align 8
  %103 = load ptr, ptr %10, align 8
  %104 = getelementptr ptr, ptr %103, i64 1
  %105 = load ptr, ptr %104, align 8
  %106 = load ptr, ptr %6, align 8
  %107 = load ptr, ptr %14, align 8
  %108 = load ptr, ptr %8, align 8
  %109 = call i32 @get_log(ptr noundef %102, ptr noundef %105, ptr noundef %106, ptr noundef %107, i32 noundef 0, ptr noundef %108)
  store i32 %109, ptr %15, align 4
  br label %110

110:                                              ; preds = %101, %93
  %111 = load ptr, ptr %10, align 8
  call void @g_strfreev(ptr noundef %111)
  %112 = load i32, ptr %15, align 4
  store i32 %112, ptr %5, align 4
  store i32 1, ptr %16, align 4
  br label %113

113:                                              ; preds = %110, %100, %56, %47
  call void @llvm.lifetime.end.p0(i64 4, ptr %15) #7
  call void @llvm.lifetime.end.p0(i64 8, ptr %14) #7
  call void @llvm.lifetime.end.p0(i64 8, ptr %13) #7
  call void @llvm.lifetime.end.p0(i64 8, ptr %12) #7
  call void @llvm.lifetime.end.p0(i64 4, ptr %11) #7
  call void @llvm.lifetime.end.p0(i64 8, ptr %10) #7
  %114 = load i32, ptr %5, align 4
  ret i32 %114
}