; Function Attrs: null_pointer_is_valid sspstrong uwtable
define internal fastcc i32 @dissect_logcat_text(ptr noundef %0, ptr noundef %1, ptr noundef %2, ptr noundef readonly captures(none) %3) unnamed_addr #0 {
  %5 = getelementptr inbounds nuw i8, ptr %2, i64 408
  %6 = load ptr, ptr %5, align 8
  %7 = tail call i32 @tvb_captured_length(ptr noundef %0)
  %8 = tail call ptr @tvb_get_string_enc(ptr noundef %6, ptr noundef %0, i32 noundef 0, i32 noundef %7, i32 noundef 2)
  %9 = load i32, ptr @proto_logcat_text, align 4
  %10 = tail call ptr @proto_tree_add_item(ptr noundef %1, i32 noundef %9, ptr noundef %0, i32 noundef 0, i32 noundef -1, i32 noundef 0)
  %11 = load i32, ptr @ett_logcat, align 4
  %12 = tail call ptr @proto_item_add_subtree(ptr noundef %10, i32 noundef %11)
  %13 = getelementptr inbounds nuw i8, ptr %2, i64 8
  %14 = load ptr, ptr %13, align 8
  tail call void @col_set_str(ptr noundef %14, i32 noundef 35, ptr noundef nonnull @.str.27)
  %15 = load ptr, ptr @special_regex, align 8
  %16 = tail call i32 @g_regex_match(ptr noundef %15, ptr noundef %8, i32 noundef 1024, ptr noundef null)
  %.not = icmp eq i32 %16, 0
  br i1 %.not, label %17, label %40

17:                                               ; preds = %4
  %18 = load ptr, ptr %3, align 8
  %19 = load ptr, ptr %18, align 8
  %20 = tail call ptr @g_regex_split(ptr noundef %19, ptr noundef %8, i32 noundef 1024)
  %21 = icmp eq ptr %20, null
  br i1 %21, label %60, label %22

22:                                               ; preds = %17
  %23 = tail call i32 @g_strv_length(ptr noundef nonnull %20)
  %24 = getelementptr inbounds nuw i8, ptr %3, i64 16
  %25 = load i32, ptr %24, align 8
  %26 = add i32 %25, 2
  %.not44 = icmp eq i32 %23, %26
  br i1 %.not44, label %.preheader, label %28

.preheader:                                       ; preds = %22
  %.not47 = icmp eq i32 %25, 0
  br i1 %.not47, label %.sink.split, label %.lr.ph

.lr.ph:                                           ; preds = %.preheader
  %27 = getelementptr inbounds nuw i8, ptr %3, i64 8
  br label %30

28:                                               ; preds = %22
  %29 = tail call ptr @proto_tree_add_expert(ptr noundef %12, ptr noundef %2, ptr noundef nonnull @ei_malformed_token, ptr noundef %0, i32 noundef 0, i32 noundef -1)
  br label %.sink.split

30:                                               ; preds = %.lr.ph, %30
  %indvars.iv = phi i64 [ 0, %.lr.ph ], [ %indvars.iv.next, %30 ]
  %.046 = phi i32 [ 0, %.lr.ph ], [ %36, %30 ]
  %31 = load ptr, ptr %27, align 8
  %32 = getelementptr ptr, ptr %31, i64 %indvars.iv
  %33 = load ptr, ptr %32, align 8
  %indvars.iv.next = add nuw nsw i64 %indvars.iv, 1
  %34 = getelementptr ptr, ptr %20, i64 %indvars.iv.next
  %35 = load ptr, ptr %34, align 8
  %36 = tail call i32 %33(ptr noundef %8, ptr noundef %35, ptr noundef %0, ptr noundef %12, i32 noundef %.046, ptr noundef %2)
  %37 = load i32, ptr %24, align 8
  %38 = zext i32 %37 to i64
  %39 = icmp samesign ult i64 %indvars.iv.next, %38
  br i1 %39, label %30, label %.sink.split, !llvm.loop !6

40:                                               ; preds = %4
  %41 = load ptr, ptr @special_regex, align 8
  %42 = tail call ptr @g_regex_split(ptr noundef %41, ptr noundef %8, i32 noundef 1024)
  %43 = icmp eq ptr %42, null
  br i1 %43, label %60, label %44

44:                                               ; preds = %40
  %45 = getelementptr i8, ptr %42, i64 8
  %46 = load ptr, ptr %45, align 8
  %47 = tail call ptr @g_strstr_len(ptr noundef %8, i64 noundef -1, ptr noundef %46)
  %48 = ptrtoint ptr %47 to i64
  %49 = ptrtoint ptr %8 to i64
  %50 = sub i64 %48, %49
  %51 = trunc i64 %50 to i32
  %52 = load i32, ptr @hf_logcat_text_log, align 4
  %53 = tail call i64 @strlen(ptr noundef %46) #6
  %54 = trunc i64 %53 to i32
  %55 = tail call ptr @proto_tree_add_string(ptr noundef %12, i32 noundef %52, ptr noundef %0, i32 noundef %51, i32 noundef %54, ptr noundef %46)
  %56 = load ptr, ptr %13, align 8
  tail call void @col_add_str(ptr noundef %56, i32 noundef 25, ptr noundef %46)
  %57 = tail call i64 @strlen(ptr noundef %46) #6
  %58 = trunc i64 %57 to i32
  %59 = add i32 %58, %51
  br label %.sink.split

.sink.split:                                      ; preds = %30, %44, %.preheader, %28
  %.040.sink = phi ptr [ %20, %28 ], [ %42, %44 ], [ %20, %.preheader ], [ %20, %30 ]
  %.039.ph = phi i32 [ 0, %28 ], [ %59, %44 ], [ 0, %.preheader ], [ %36, %30 ]
  tail call void @g_strfreev(ptr noundef nonnull %.040.sink)
  br label %60

60:                                               ; preds = %.sink.split, %40, %17
  %.039 = phi i32 [ 0, %17 ], [ 0, %40 ], [ %.039.ph, %.sink.split ]
  ret i32 %.039
}